target datalayout = "e-m:e-p270:32:32-p271:32:32-p272:64:64-i64:64-i128:128-f80:128-n8:16:32:64-S128"
target triple = "x86_64-pc-linux-gnu"

; Function Attrs: alwaysinline nounwind willreturn memory(none) uwtable
define internal zeroext i8 @av_clip_uint8_c(i32 noundef %0) #6 {
  %2 = alloca i8, align 1
  %3 = alloca i32, align 4
  store i32 %0, ptr %3, align 4, !tbaa !30
  %4 = load i32, ptr %3, align 4, !tbaa !30
  %5 = and i32 %4, -256
  %6 = icmp ne i32 %5, 0
  br i1 %6, label %7, label %12

7:                                                ; preds = %1
  %8 = load i32, ptr %3, align 4, !tbaa !30
  %9 = xor i32 %8, -1
  %10 = ashr i32 %9, 31
  %11 = trunc i32 %10 to i8
  store i8 %11, ptr %2, align 1
  br label %15

12:                                               ; preds = %1
  %13 = load i32, ptr %3, align 4, !tbaa !30
  %14 = trunc i32 %13 to i8
  store i8 %14, ptr %2, align 1
  br label %15

15:                                               ; preds = %12, %7
  %16 = load i8, ptr %2, align 1
  ret i8 %16
}

; Function Attrs: alwaysinline nounwind uwtable
define internal void @yuv2ayuv_2_c_template(ptr noundef %0, ptr noundef %1, ptr noundef %2, ptr noundef %3, ptr noundef %4, ptr noundef %5, i32 noundef %6, i32 noundef %7, i32 noundef %8, i32 noundef %9, i32 noundef %10) #3 {
  %12 = alloca ptr, align 8
  %13 = alloca ptr, align 8
  %14 = alloca ptr, align 8
  %15 = alloca ptr, align 8
  %16 = alloca ptr, align 8
  %17 = alloca ptr, align 8
  %18 = alloca i32, align 4
  %19 = alloca i32, align 4
  %20 = alloca i32, align 4
  %21 = alloca i32, align 4
  %22 = alloca i32, align 4
  %23 = alloca i32, align 4
  %24 = alloca ptr, align 8
  %25 = alloca ptr, align 8
  %26 = alloca ptr, align 8
  %27 = alloca ptr, align 8
  %28 = alloca ptr, align 8
  %29 = alloca ptr, align 8
  %30 = alloca ptr, align 8
  %31 = alloca ptr, align 8
  %32 = alloca i32, align 4
  %33 = alloca i32, align 4
  %34 = alloca i32, align 4
  %35 = alloca i32, align 4
  %36 = alloca i32, align 4
  %37 = alloca i32, align 4
  %38 = alloca i32, align 4
  store ptr %0, ptr %12, align 8, !tbaa !4
  store ptr %1, ptr %13, align 8, !tbaa !47
  store ptr %2, ptr %14, align 8, !tbaa !47
  store ptr %3, ptr %15, align 8, !tbaa !47
  store ptr %4, ptr %16, align 8, !tbaa !47
  store ptr %5, ptr %17, align 8, !tbaa !46
  store i32 %6, ptr %18, align 4, !tbaa !30
  store i32 %7, ptr %19, align 4, !tbaa !30
  store i32 %8, ptr %20, align 4, !tbaa !30
  store i32 %9, ptr %21, align 4, !tbaa !30
  store i32 %10, ptr %22, align 4, !tbaa !30
  call void @llvm.lifetime.start.p0(i64 4, ptr %23) #8
  %39 = load ptr, ptr %16, align 8, !tbaa !47
  %40 = icmp ne ptr %39, null
  br i1 %40, label %41, label %51

41:                                               ; preds = %11
  %42 = load ptr, ptr %16, align 8, !tbaa !47
  %43 = getelementptr inbounds ptr, ptr %42, i64 0
  %44 = load ptr, ptr %43, align 8, !tbaa !45
  %45 = icmp ne ptr %44, null
  br i1 %45, label %46, label %51

46:                                               ; preds = %41
  %47 = load ptr, ptr %16, align 8, !tbaa !47
  %48 = getelementptr inbounds ptr, ptr %47, i64 1
  %49 = load ptr, ptr %48, align 8, !tbaa !45
  %50 = icmp ne ptr %49, null
  br label %51

51:                                               ; preds = %46, %41, %11
  %52 = phi i1 [ false, %41 ], [ false, %11 ], [ %50, %46 ]
  %53 = zext i1 %52 to i32
  store i32 %53, ptr %23, align 4, !tbaa !30
  call void @llvm.lifetime.start.p0(i64 8, ptr %24) #8
  %54 = load ptr, ptr %13, align 8, !tbaa !47
  %55 = getelementptr inbounds ptr, ptr %54, i64 0
  %56 = load ptr, ptr %55, align 8, !tbaa !45
  store ptr %56, ptr %24, align 8, !tbaa !45
  call void @llvm.lifetime.start.p0(i64 8, ptr %25) #8
  %57 = load ptr, ptr %13, align 8, !tbaa !47
  %58 = getelementptr inbounds ptr, ptr %57, i64 1
  %59 = load ptr, ptr %58, align 8, !tbaa !45
  store ptr %59, ptr %25, align 8, !tbaa !45
  call void @llvm.lifetime.start.p0(i64 8, ptr %26) #8
  %60 = load ptr, ptr %14, align 8, !tbaa !47
  %61 = getelementptr inbounds ptr, ptr %60, i64 0
  %62 = load ptr, ptr %61, align 8, !tbaa !45
  store ptr %62, ptr %26, align 8, !tbaa !45
  call void @llvm.lifetime.start.p0(i64 8, ptr %27) #8
  %63 = load ptr, ptr %14, align 8, !tbaa !47
  %64 = getelementptr inbounds ptr, ptr %63, i64 1
  %65 = load ptr, ptr %64, align 8, !tbaa !45
  store ptr %65, ptr %27, align 8, !tbaa !45
  call void @llvm.lifetime.start.p0(i64 8, ptr %28) #8
  %66 = load ptr, ptr %15, align 8, !tbaa !47
  %67 = getelementptr inbounds ptr, ptr %66, i64 0
  %68 = load ptr, ptr %67, align 8, !tbaa !45
  store ptr %68, ptr %28, align 8, !tbaa !45
  call void @llvm.lifetime.start.p0(i64 8, ptr %29) #8
  %69 = load ptr, ptr %15, align 8, !tbaa !47
  %70 = getelementptr inbounds ptr, ptr %69, i64 1
  %71 = load ptr, ptr %70, align 8, !tbaa !45
  store ptr %71, ptr %29, align 8, !tbaa !45
  call void @llvm.lifetime.start.p0(i64 8, ptr %30) #8
  %72 = load i32, ptr %23, align 4, !tbaa !30
  %73 = icmp ne i32 %72, 0
  br i1 %73, label %74, label %78

74:                                               ; preds = %51
  %75 = load ptr, ptr %16, align 8, !tbaa !47
  %76 = getelementptr inbounds ptr, ptr %75, i64 0
  %77 = load ptr, ptr %76, align 8, !tbaa !45
  br label %79

78:                                               ; preds = %51
  br label %79

79:                                               ; preds = %78, %74
  %80 = phi ptr [ %77, %74 ], [ null, %78 ]
  store ptr %80, ptr %30, align 8, !tbaa !45
  call void @llvm.lifetime.start.p0(i64 8, ptr %31) #8
  %81 = load i32, ptr %23, align 4, !tbaa !30
  %82 = icmp ne i32 %81, 0
  br i1 %82, label %83, label %87

83:                                               ; preds = %79
  %84 = load ptr, ptr %16, align 8, !tbaa !47
  %85 = getelementptr inbounds ptr, ptr %84, i64 1
  %86 = load ptr, ptr %85, align 8, !tbaa !45
  br label %88

87:                                               ; preds = %79
  br label %88

88:                                               ; preds = %87, %83
  %89 = phi ptr [ %86, %83 ], [ null, %87 ]
  store ptr %89, ptr %31, align 8, !tbaa !45
  call void @llvm.lifetime.start.p0(i64 4, ptr %32) #8
  %90 = load i32, ptr %19, align 4, !tbaa !30
  %91 = sub nsw i32 4096, %90
  store i32 %91, ptr %32, align 4, !tbaa !30
  call void @llvm.lifetime.start.p0(i64 4, ptr %33) #8
  %92 = load i32, ptr %20, align 4, !tbaa !30
  %93 = sub nsw i32 4096, %92
  store i32 %93, ptr %33, align 4, !tbaa !30
  call void @llvm.lifetime.start.p0(i64 4, ptr %34) #8
  store i32 0, ptr %34, align 4, !tbaa !30
  br label %94

94:                                               ; preds = %308, %88
  %95 = load i32, ptr %34, align 4, !tbaa !30
  %96 = load i32, ptr %18, align 4, !tbaa !30
  %97 = icmp slt i32 %95, %96
  br i1 %97, label %98, label %311

98:                                               ; preds = %94
  call void @llvm.lifetime.start.p0(i64 4, ptr %35) #8
  %99 = load ptr, ptr %24, align 8, !tbaa !45
  %100 = load i32, ptr %34, align 4, !tbaa !30
  %101 = sext i32 %100 to i64
  %102 = getelementptr inbounds i16, ptr %99, i64 %101
  %103 = load i16, ptr %102, align 2, !tbaa !49
  %104 = sext i16 %103 to i32
  %105 = load i32, ptr %32, align 4, !tbaa !30
  %106 = mul nsw i32 %104, %105
  %107 = load ptr, ptr %25, align 8, !tbaa !45
  %108 = load i32, ptr %34, align 4, !tbaa !30
  %109 = sext i32 %108 to i64
  %110 = getelementptr inbounds i16, ptr %107, i64 %109
  %111 = load i16, ptr %110, align 2, !tbaa !49
  %112 = sext i16 %111 to i32
  %113 = load i32, ptr %19, align 4, !tbaa !30
  %114 = mul nsw i32 %112, %113
  %115 = add nsw i32 %106, %114
  %116 = ashr i32 %115, 19
  store i32 %116, ptr %35, align 4, !tbaa !30
  call void @llvm.lifetime.start.p0(i64 4, ptr %36) #8
  %117 = load ptr, ptr %26, align 8, !tbaa !45
  %118 = load i32, ptr %34, align 4, !tbaa !30
  %119 = sext i32 %118 to i64
  %120 = getelementptr inbounds i16, ptr %117, i64 %119
  %121 = load i16, ptr %120, align 2, !tbaa !49
  %122 = sext i16 %121 to i32
  %123 = load i32, ptr %33, align 4, !tbaa !30
  %124 = mul nsw i32 %122, %123
  %125 = load ptr, ptr %27, align 8, !tbaa !45
  %126 = load i32, ptr %34, align 4, !tbaa !30
  %127 = sext i32 %126 to i64
  %128 = getelementptr inbounds i16, ptr %125, i64 %127
  %129 = load i16, ptr %128, align 2, !tbaa !49
  %130 = sext i16 %129 to i32
  %131 = load i32, ptr %20, align 4, !tbaa !30
  %132 = mul nsw i32 %130, %131
  %133 = add nsw i32 %124, %132
  %134 = ashr i32 %133, 19
  store i32 %134, ptr %36, align 4, !tbaa !30
  call void @llvm.lifetime.start.p0(i64 4, ptr %37) #8
  %135 = load ptr, ptr %28, align 8, !tbaa !45
  %136 = load i32, ptr %34, align 4, !tbaa !30
  %137 = sext i32 %136 to i64
  %138 = getelementptr inbounds i16, ptr %135, i64 %137
  %139 = load i16, ptr %138, align 2, !tbaa !49
  %140 = sext i16 %139 to i32
  %141 = load i32, ptr %33, align 4, !tbaa !30
  %142 = mul nsw i32 %140, %141
  %143 = load ptr, ptr %29, align 8, !tbaa !45
  %144 = load i32, ptr %34, align 4, !tbaa !30
  %145 = sext i32 %144 to i64
  %146 = getelementptr inbounds i16, ptr %143, i64 %145
  %147 = load i16, ptr %146, align 2, !tbaa !49
  %148 = sext i16 %147 to i32
  %149 = load i32, ptr %20, align 4, !tbaa !30
  %150 = mul nsw i32 %148, %149
  %151 = add nsw i32 %142, %150
  %152 = ashr i32 %151, 19
  store i32 %152, ptr %37, align 4, !tbaa !30
  call void @llvm.lifetime.start.p0(i64 4, ptr %38) #8
  store i32 255, ptr %38, align 4, !tbaa !30
  %153 = load i32, ptr %35, align 4, !tbaa !30
  %154 = and i32 %153, 256
  %155 = icmp ne i32 %154, 0
  br i1 %155, label %156, label %160

156:                                              ; preds = %98
  %157 = load i32, ptr %35, align 4, !tbaa !30
  %158 = call zeroext i8 @av_clip_uint8_c(i32 noundef %157) #10
  %159 = zext i8 %158 to i32
  store i32 %159, ptr %35, align 4, !tbaa !30
  br label %160

160:                                              ; preds = %156, %98
  %161 = load i32, ptr %36, align 4, !tbaa !30
  %162 = and i32 %161, 256
  %163 = icmp ne i32 %162, 0
  br i1 %163, label %164, label %168

164:                                              ; preds = %160
  %165 = load i32, ptr %36, align 4, !tbaa !30
  %166 = call zeroext i8 @av_clip_uint8_c(i32 noundef %165) #10
  %167 = zext i8 %166 to i32
  store i32 %167, ptr %36, align 4, !tbaa !30
  br label %168

168:                                              ; preds = %164, %160
  %169 = load i32, ptr %37, align 4, !tbaa !30
  %170 = and i32 %169, 256
  %171 = icmp ne i32 %170, 0
  br i1 %171, label %172, label %176

172:                                              ; preds = %168
  %173 = load i32, ptr %37, align 4, !tbaa !30
  %174 = call zeroext i8 @av_clip_uint8_c(i32 noundef %173) #10
  %175 = zext i8 %174 to i32
  store i32 %175, ptr %37, align 4, !tbaa !30
  br label %176

176:                                              ; preds = %172, %168
  %177 = load i32, ptr %23, align 4, !tbaa !30
  %178 = icmp ne i32 %177, 0
  br i1 %178, label %179, label %201

179:                                              ; preds = %176
  %180 = load ptr, ptr %30, align 8, !tbaa !45
  %181 = load i32, ptr %34, align 4, !tbaa !30
  %182 = sext i32 %181 to i64
  %183 = getelementptr inbounds i16, ptr %180, i64 %182
  %184 = load i16, ptr %183, align 2, !tbaa !49
  %185 = sext i16 %184 to i32
  %186 = load i32, ptr %32, align 4, !tbaa !30
  %187 = mul nsw i32 %185, %186
  %188 = load ptr, ptr %31, align 8, !tbaa !45
  %189 = load i32, ptr %34, align 4, !tbaa !30
  %190 = sext i32 %189 to i64
  %191 = getelementptr inbounds i16, ptr %188, i64 %190
  %192 = load i16, ptr %191, align 2, !tbaa !49
  %193 = sext i16 %192 to i32
  %194 = load i32, ptr %19, align 4, !tbaa !30
  %195 = mul nsw i32 %193, %194
  %196 = add nsw i32 %187, %195
  %197 = ashr i32 %196, 19
  store i32 %197, ptr %38, align 4, !tbaa !30
  %198 = load i32, ptr %38, align 4, !tbaa !30
  %199 = call zeroext i8 @av_clip_uint8_c(i32 noundef %198) #10
  %200 = zext i8 %199 to i32
  store i32 %200, ptr %38, align 4, !tbaa !30
  br label %201

201:                                              ; preds = %179, %176
  %202 = load i32, ptr %22, align 4, !tbaa !30
  %203 = icmp eq i32 %202, 228
  br i1 %203, label %204, label %237

204:                                              ; preds = %201
  %205 = load i32, ptr %38, align 4, !tbaa !30
  %206 = trunc i32 %205 to i8
  %207 = load ptr, ptr %17, align 8, !tbaa !46
  %208 = load i32, ptr %34, align 4, !tbaa !30
  %209 = mul nsw i32 %208, 4
  %210 = add nsw i32 %209, 0
  %211 = sext i32 %210 to i64
  %212 = getelementptr inbounds i8, ptr %207, i64 %211
  store i8 %206, ptr %212, align 1, !tbaa !51
  %213 = load i32, ptr %35, align 4, !tbaa !30
  %214 = trunc i32 %213 to i8
  %215 = load ptr, ptr %17, align 8, !tbaa !46
  %216 = load i32, ptr %34, align 4, !tbaa !30
  %217 = mul nsw i32 %216, 4
  %218 = add nsw i32 %217, 1
  %219 = sext i32 %218 to i64
  %220 = getelementptr inbounds i8, ptr %215, i64 %219
  store i8 %214, ptr %220, align 1, !tbaa !51
  %221 = load i32, ptr %36, align 4, !tbaa !30
  %222 = trunc i32 %221 to i8
  %223 = load ptr, ptr %17, align 8, !tbaa !46
  %224 = load i32, ptr %34, align 4, !tbaa !30
  %225 = mul nsw i32 %224, 4
  %226 = add nsw i32 %225, 2
  %227 = sext i32 %226 to i64
  %228 = getelementptr inbounds i8, ptr %223, i64 %227
  store i8 %222, ptr %228, align 1, !tbaa !51
  %229 = load i32, ptr %37, align 4, !tbaa !30
  %230 = trunc i32 %229 to i8
  %231 = load ptr, ptr %17, align 8, !tbaa !46
  %232 = load i32, ptr %34, align 4, !tbaa !30
  %233 = mul nsw i32 %232, 4
  %234 = add nsw i32 %233, 3
  %235 = sext i32 %234 to i64
  %236 = getelementptr inbounds i8, ptr %231, i64 %235
  store i8 %230, ptr %236, align 1, !tbaa !51
  br label %307

237:                                              ; preds = %201
  %238 = load i32, ptr %22, align 4, !tbaa !30
  %239 = icmp eq i32 %238, 229
  br i1 %239, label %240, label %273

240:                                              ; preds = %237
  %241 = load i32, ptr %36, align 4, !tbaa !30
  %242 = trunc i32 %241 to i8
  %243 = load ptr, ptr %17, align 8, !tbaa !46
  %244 = load i32, ptr %34, align 4, !tbaa !30
  %245 = mul nsw i32 %244, 4
  %246 = add nsw i32 %245, 0
  %247 = sext i32 %246 to i64
  %248 = getelementptr inbounds i8, ptr %243, i64 %247
  store i8 %242, ptr %248, align 1, !tbaa !51
  %249 = load i32, ptr %35, align 4, !tbaa !30
  %250 = trunc i32 %249 to i8
  %251 = load ptr, ptr %17, align 8, !tbaa !46
  %252 = load i32, ptr %34, align 4, !tbaa !30
  %253 = mul nsw i32 %252, 4
  %254 = add nsw i32 %253, 1
  %255 = sext i32 %254 to i64
  %256 = getelementptr inbounds i8, ptr %251, i64 %255
  store i8 %250, ptr %256, align 1, !tbaa !51
  %257 = load i32, ptr %37, align 4, !tbaa !30
  %258 = trunc i32 %257 to i8
  %259 = load ptr, ptr %17, align 8, !tbaa !46
  %260 = load i32, ptr %34, align 4, !tbaa !30
  %261 = mul nsw i32 %260, 4
  %262 = add nsw i32 %261, 2
  %263 = sext i32 %262 to i64
  %264 = getelementptr inbounds i8, ptr %259, i64 %263
  store i8 %258, ptr %264, align 1, !tbaa !51
  %265 = load i32, ptr %38, align 4, !tbaa !30
  %266 = trunc i32 %265 to i8
  %267 = load ptr, ptr %17, align 8, !tbaa !46
  %268 = load i32, ptr %34, align 4, !tbaa !30
  %269 = mul nsw i32 %268, 4
  %270 = add nsw i32 %269, 3
  %271 = sext i32 %270 to i64
  %272 = getelementptr inbounds i8, ptr %267, i64 %271
  store i8 %266, ptr %272, align 1, !tbaa !51
  br label %306

273:                                              ; preds = %237
  %274 = load i32, ptr %37, align 4, !tbaa !30
  %275 = trunc i32 %274 to i8
  %276 = load ptr, ptr %17, align 8, !tbaa !46
  %277 = load i32, ptr %34, align 4, !tbaa !30
  %278 = mul nsw i32 %277, 4
  %279 = add nsw i32 %278, 0
  %280 = sext i32 %279 to i64
  %281 = getelementptr inbounds i8, ptr %276, i64 %280
  store i8 %275, ptr %281, align 1, !tbaa !51
  %282 = load i32, ptr %36, align 4, !tbaa !30
  %283 = trunc i32 %282 to i8
  %284 = load ptr, ptr %17, align 8, !tbaa !46
  %285 = load i32, ptr %34, align 4, !tbaa !30
  %286 = mul nsw i32 %285, 4
  %287 = add nsw i32 %286, 1
  %288 = sext i32 %287 to i64
  %289 = getelementptr inbounds i8, ptr %284, i64 %288
  store i8 %283, ptr %289, align 1, !tbaa !51
  %290 = load i32, ptr %35, align 4, !tbaa !30
  %291 = trunc i32 %290 to i8
  %292 = load ptr, ptr %17, align 8, !tbaa !46
  %293 = load i32, ptr %34, align 4, !tbaa !30
  %294 = mul nsw i32 %293, 4
  %295 = add nsw i32 %294, 2
  %296 = sext i32 %295 to i64
  %297 = getelementptr inbounds i8, ptr %292, i64 %296
  store i8 %291, ptr %297, align 1, !tbaa !51
  %298 = load i32, ptr %38, align 4, !tbaa !30
  %299 = trunc i32 %298 to i8
  %300 = load ptr, ptr %17, align 8, !tbaa !46
  %301 = load i32, ptr %34, align 4, !tbaa !30
  %302 = mul nsw i32 %301, 4
  %303 = add nsw i32 %302, 3
  %304 = sext i32 %303 to i64
  %305 = getelementptr inbounds i8, ptr %300, i64 %304
  store i8 %299, ptr %305, align 1, !tbaa !51
  br label %306

306:                                              ; preds = %273, %240
  br label %307

307:                                              ; preds = %306, %204
  call void @llvm.lifetime.end.p0(i64 4, ptr %38) #8
  call void @llvm.lifetime.end.p0(i64 4, ptr %37) #8
  call void @llvm.lifetime.end.p0(i64 4, ptr %36) #8
  call void @llvm.lifetime.end.p0(i64 4, ptr %35) #8
  br label %308

308:                                              ; preds = %307
  %309 = load i32, ptr %34, align 4, !tbaa !30
  %310 = add nsw i32 %309, 1
  store i32 %310, ptr %34, align 4, !tbaa !30
  br label %94, !llvm.loop !186

311:                                              ; preds = %94
  call void @llvm.lifetime.end.p0(i64 4, ptr %34) #8
  call void @llvm.lifetime.end.p0(i64 4, ptr %33) #8
  call void @llvm.lifetime.end.p0(i64 4, ptr %32) #8
  call void @llvm.lifetime.end.p0(i64 8, ptr %31) #8
  call void @llvm.lifetime.end.p0(i64 8, ptr %30) #8
  call void @llvm.lifetime.end.p0(i64 8, ptr %29) #8
  call void @llvm.lifetime.end.p0(i64 8, ptr %28) #8
  call void @llvm.lifetime.end.p0(i64 8, ptr %27) #8
  call void @llvm.lifetime.end.p0(i64 8, ptr %26) #8
  call void @llvm.lifetime.end.p0(i64 8, ptr %25) #8
  call void @llvm.lifetime.end.p0(i64 8, ptr %24) #8
  call void @llvm.lifetime.end.p0(i64 4, ptr %23) #8
  ret void
}

; Function Attrs: nounwind uwtable
define internal void @yuv2uyva_2_c(ptr noundef %0, ptr noundef %1, ptr noundef %2, ptr noundef %3, ptr noundef %4, ptr noundef %5, i32 noundef %6, i32 noundef %7, i32 noundef %8, i32 noundef %9) #4 {
  %11 = alloca ptr, align 8
  %12 = alloca ptr, align 8
  %13 = alloca ptr, align 8
  %14 = alloca ptr, align 8
  %15 = alloca ptr, align 8
  %16 = alloca ptr, align 8
  %17 = alloca i32, align 4
  %18 = alloca i32, align 4
  %19 = alloca i32, align 4
  %20 = alloca i32, align 4
  store ptr %0, ptr %11, align 8, !tbaa !4
  store ptr %1, ptr %12, align 8, !tbaa !47
  store ptr %2, ptr %13, align 8, !tbaa !47
  store ptr %3, ptr %14, align 8, !tbaa !47
  store ptr %4, ptr %15, align 8, !tbaa !47
  store ptr %5, ptr %16, align 8, !tbaa !46
  store i32 %6, ptr %17, align 4, !tbaa !30
  store i32 %7, ptr %18, align 4, !tbaa !30
  store i32 %8, ptr %19, align 4, !tbaa !30
  store i32 %9, ptr %20, align 4, !tbaa !30
  %21 = load ptr, ptr %11, align 8, !tbaa !4
  %22 = load ptr, ptr %12, align 8, !tbaa !47
  %23 = load ptr, ptr %13, align 8, !tbaa !47
  %24 = load ptr, ptr %14, align 8, !tbaa !47
  %25 = load ptr, ptr %15, align 8, !tbaa !47
  %26 = load ptr, ptr %16, align 8, !tbaa !46
  %27 = load i32, ptr %17, align 4, !tbaa !30
  %28 = load i32, ptr %18, align 4, !tbaa !30
  %29 = load i32, ptr %19, align 4, !tbaa !30
  %30 = load i32, ptr %20, align 4, !tbaa !30
  call void @yuv2ayuv_2_c_template(ptr noundef %21, ptr noundef %22, ptr noundef %23, ptr noundef %24, ptr noundef %25, ptr noundef %26, i32 noundef %27, i32 noundef %28, i32 noundef %29, i32 noundef %30, i32 noundef 229)
  ret void
}